target datalayout = "e-m:e-p270:32:32-p271:32:32-p272:64:64-i64:64-i128:128-f80:128-n8:16:32:64-S128"
target triple = "x86_64-unknown-linux-gnu"

%struct._SYSTEMTIME = type { i16, i16, i16, i16, i16, i16, i16, i16 }
%struct._FILETIME = type { i32, i32 }

; Function Attrs: mustprogress uwtable
define dso_local void @_ZN2EA4StdC20DateTimeToSystemTimeERKNS0_8DateTimeER11_SYSTEMTIME(ptr noundef nonnull align 8 dereferenceable(12) %dateTime, ptr noundef nonnull align 2 dereferenceable(16) %time) #0 {
entry:
  %dateTime.addr = alloca ptr, align 8
  %time.addr = alloca ptr, align 8
  store ptr %dateTime, ptr %dateTime.addr, align 8
  store ptr %time, ptr %time.addr, align 8
  %0 = load ptr, ptr %dateTime.addr, align 8
  %call = call noundef i32 @_ZNK2EA4StdC8DateTime12GetParameterENS0_9ParameterE(ptr noundef nonnull align 8 dereferenceable(12) %0, i32 noundef 1)
  %conv = trunc i32 %call to i16
  %1 = load ptr, ptr %time.addr, align 8
  %wYear = getelementptr inbounds %struct._SYSTEMTIME, ptr %1, i32 0, i32 0
  store i16 %conv, ptr %wYear, align 2
  %2 = load ptr, ptr %dateTime.addr, align 8
  %call1 = call noundef i32 @_ZNK2EA4StdC8DateTime12GetParameterENS0_9ParameterE(ptr noundef nonnull align 8 dereferenceable(12) %2, i32 noundef 2)
  %conv2 = trunc i32 %call1 to i16
  %3 = load ptr, ptr %time.addr, align 8
  %wMonth = getelementptr inbounds %struct._SYSTEMTIME, ptr %3, i32 0, i32 1
  store i16 %conv2, ptr %wMonth, align 2
  %4 = load ptr, ptr %dateTime.addr, align 8
  %call3 = call noundef i32 @_ZNK2EA4StdC8DateTime12GetParameterENS0_9ParameterE(ptr noundef nonnull align 8 dereferenceable(12) %4, i32 noundef 7)
  %sub = sub i32 %call3, 1
  %conv4 = trunc i32 %sub to i16
  %5 = load ptr, ptr %time.addr, align 8
  %wDayOfWeek = getelementptr inbounds %struct._SYSTEMTIME, ptr %5, i32 0, i32 2
  store i16 %conv4, ptr %wDayOfWeek, align 2
  %6 = load ptr, ptr %dateTime.addr, align 8
  %call5 = call noundef i32 @_ZNK2EA4StdC8DateTime12GetParameterENS0_9ParameterE(ptr noundef nonnull align 8 dereferenceable(12) %6, i32 noundef 6)
  %conv6 = trunc i32 %call5 to i16
  %7 = load ptr, ptr %time.addr, align 8
  %wDay = getelementptr inbounds %struct._SYSTEMTIME, ptr %7, i32 0, i32 3
  store i16 %conv6, ptr %wDay, align 2
  %8 = load ptr, ptr %dateTime.addr, align 8
  %call7 = call noundef i32 @_ZNK2EA4StdC8DateTime12GetParameterENS0_9ParameterE(ptr noundef nonnull align 8 dereferenceable(12) %8, i32 noundef 8)
  %conv8 = trunc i32 %call7 to i16
  %9 = load ptr, ptr %time.addr, align 8
  %wHour = getelementptr inbounds %struct._SYSTEMTIME, ptr %9, i32 0, i32 4
  store i16 %conv8, ptr %wHour, align 2
  %10 = load ptr, ptr %dateTime.addr, align 8
  %call9 = call noundef i32 @_ZNK2EA4StdC8DateTime12GetParameterENS0_9ParameterE(ptr noundef nonnull align 8 dereferenceable(12) %10, i32 noundef 9)
  %conv10 = trunc i32 %call9 to i16
  %11 = load ptr, ptr %time.addr, align 8
  %wMinute = getelementptr inbounds %struct._SYSTEMTIME, ptr %11, i32 0, i32 5
  store i16 %conv10, ptr %wMinute, align 2
  %12 = load ptr, ptr %dateTime.addr, align 8
  %call11 = call noundef i32 @_ZNK2EA4StdC8DateTime12GetParameterENS0_9ParameterE(ptr noundef nonnull align 8 dereferenceable(12) %12, i32 noundef 10)
  %conv12 = trunc i32 %call11 to i16
  %13 = load ptr, ptr %time.addr, align 8
  %wSecond = getelementptr inbounds %struct._SYSTEMTIME, ptr %13, i32 0, i32 6
  store i16 %conv12, ptr %wSecond, align 2
  %14 = load ptr, ptr %dateTime.addr, align 8
  %call13 = call noundef i32 @_ZNK2EA4StdC8DateTime12GetParameterENS0_9ParameterE(ptr noundef nonnull align 8 dereferenceable(12) %14, i32 noundef 11)
  %div = udiv i32 %call13, 1000000
  %conv14 = trunc i32 %div to i16
  %15 = load ptr, ptr %time.addr, align 8
  %wMilliseconds = getelementptr inbounds %struct._SYSTEMTIME, ptr %15, i32 0, i32 7
  store i16 %conv14, ptr %wMilliseconds, align 2
  ret void
}

; Function Attrs: mustprogress uwtable
define dso_local void @_ZN2EA4StdC18DateTimeToFileTimeERKNS0_8DateTimeER9_FILETIME(ptr noundef nonnull align 8 dereferenceable(12) %dateTime, ptr noundef nonnull align 4 dereferenceable(8) %time) #0 {
entry:
  %dateTime.addr = alloca ptr, align 8
  %time.addr = alloca ptr, align 8
  %systemTime = alloca %struct._SYSTEMTIME, align 2
  %month = alloca i64, align 8
  %year = alloca i64, align 8
  %endOfCenturyLeapYearCount = alloca i64, align 8
  %day = alloca i64, align 8
  %time64 = alloca i64, align 8
  store ptr %dateTime, ptr %dateTime.addr, align 8
  store ptr %time, ptr %time.addr, align 8
  %0 = load ptr, ptr %dateTime.addr, align 8
  call void @_ZN2EA4StdC20DateTimeToSystemTimeERKNS0_8DateTimeER11_SYSTEMTIME(ptr noundef nonnull align 8 dereferenceable(12) %0, ptr noundef nonnull align 2 dereferenceable(16) %systemTime)
  %wMonth = getelementptr inbounds %struct._SYSTEMTIME, ptr %systemTime, i32 0, i32 1
  %1 = load i16, ptr %wMonth, align 2
  %conv = zext i16 %1 to i32
  %cmp = icmp sge i32 %conv, 3
  br i1 %cmp, label %if.then, label %if.else

if.then:                                          ; preds = %entry
  %wMonth1 = getelementptr inbounds %struct._SYSTEMTIME, ptr %systemTime, i32 0, i32 1
  %2 = load i16, ptr %wMonth1, align 2
  %conv2 = zext i16 %2 to i32
  %add = add nsw i32 %conv2, 1
  %conv3 = sext i32 %add to i64
  store i64 %conv3, ptr %month, align 8
  %wYear = getelementptr inbounds %struct._SYSTEMTIME, ptr %systemTime, i32 0, i32 0
  %3 = load i16, ptr %wYear, align 2
  %conv4 = zext i16 %3 to i64
  store i64 %conv4, ptr %year, align 8
  br label %if.end

if.else:                                          ; preds = %entry
  %wMonth5 = getelementptr inbounds %struct._SYSTEMTIME, ptr %systemTime, i32 0, i32 1
  %4 = load i16, ptr %wMonth5, align 2
  %conv6 = zext i16 %4 to i32
  %add7 = add nsw i32 %conv6, 13
  %conv8 = sext i32 %add7 to i64
  store i64 %conv8, ptr %month, align 8
  %wYear9 = getelementptr inbounds %struct._SYSTEMTIME, ptr %systemTime, i32 0, i32 0
  %5 = load i16, ptr %wYear9, align 2
  %conv10 = zext i16 %5 to i32
  %sub = sub nsw i32 %conv10, 1
  %conv11 = sext i32 %sub to i64
  store i64 %conv11, ptr %year, align 8
  br label %if.end

if.end:                                           ; preds = %if.else, %if.then
  %6 = load i64, ptr %year, align 8
  %div = sdiv i64 %6, 100
  %mul = mul nsw i64 3, %div
  %add12 = add nsw i64 %mul, 3
  %div13 = sdiv i64 %add12, 4
  store i64 %div13, ptr %endOfCenturyLeapYearCount, align 8
  %7 = load i64, ptr %year, align 8
  %mul14 = mul nsw i64 36525, %7
  %div15 = sdiv i64 %mul14, 100
  %8 = load i64, ptr %endOfCenturyLeapYearCount, align 8
  %sub16 = sub nsw i64 %div15, %8
  %9 = load i64, ptr %month, align 8
  %mul17 = mul nsw i64 1959, %9
  %div18 = sdiv i64 %mul17, 64
  %add19 = add nsw i64 %sub16, %div18
  %wDay = getelementptr inbounds %struct._SYSTEMTIME, ptr %systemTime, i32 0, i32 3
  %10 = load i16, ptr %wDay, align 2
  %conv20 = zext i16 %10 to i64
  %add21 = add nsw i64 %add19, %conv20
  %sub22 = sub nsw i64 %add21, 584817
  store i64 %sub22, ptr %day, align 8
  %11 = load i64, ptr %day, align 8
  %mul23 = mul nsw i64 %11, 24
  %wHour = getelementptr inbounds %struct._SYSTEMTIME, ptr %systemTime, i32 0, i32 4
  %12 = load i16, ptr %wHour, align 2
  %conv24 = zext i16 %12 to i64
  %add25 = add nsw i64 %mul23, %conv24
  %mul26 = mul nsw i64 %add25, 60
  %wMinute = getelementptr inbounds %struct._SYSTEMTIME, ptr %systemTime, i32 0, i32 5
  %13 = load i16, ptr %wMinute, align 2
  %conv27 = zext i16 %13 to i64
  %add28 = add nsw i64 %mul26, %conv27
  %mul29 = mul nsw i64 %add28, 60
  %wSecond = getelementptr inbounds %struct._SYSTEMTIME, ptr %systemTime, i32 0, i32 6
  %14 = load i16, ptr %wSecond, align 2
  %conv30 = zext i16 %14 to i64
  %add31 = add nsw i64 %mul29, %conv30
  %mul32 = mul nsw i64 %add31, 1000
  %wMilliseconds = getelementptr inbounds %struct._SYSTEMTIME, ptr %systemTime, i32 0, i32 7
  %15 = load i16, ptr %wMilliseconds, align 2
  %conv33 = zext i16 %15 to i64
  %add34 = add nsw i64 %mul32, %conv33
  %mul35 = mul nsw i64 %add34, 10000
  store i64 %mul35, ptr %time64, align 8
  %16 = load i64, ptr %time64, align 8
  %conv36 = trunc i64 %16 to i32
  %17 = load ptr, ptr %time.addr, align 8
  %dwLowDateTime = getelementptr inbounds %struct._FILETIME, ptr %17, i32 0, i32 0
  store i32 %conv36, ptr %dwLowDateTime, align 4
  %18 = load i64, ptr %time64, align 8
  %shr = ashr i64 %18, 32
  %conv37 = trunc i64 %shr to i32
  %19 = load ptr, ptr %time.addr, align 8
  %dwHighDateTime = getelementptr inbounds %struct._FILETIME, ptr %19, i32 0, i32 1
  store i32 %conv37, ptr %dwHighDateTime, align 4
  ret void
}