; Function Attrs: mustprogress nofree nosync nounwind willreturn memory(argmem: readwrite) uwtable
define dso_local void @_ZN2EA4StdC18DateTimeToFileTimeERKNS0_8DateTimeER9_FILETIME(ptr noundef nonnull align 8 dereferenceable(12) %dateTime, ptr noundef nonnull writeonly align 4 captures(none) dereferenceable(8) initializes((0, 8)) %time) local_unnamed_addr #8 {
entry:
  %0 = load i64, ptr %dateTime, align 8
  %div.i.i = sdiv i64 %0, 86400
  %div2.i.i = sdiv i64 %0, 31536000
  %sub.i.i = add nsw i64 %div2.i.i, -1
  %div3.neg.i.i = sdiv i64 %sub.i.i, -4
  %div6.neg.neg.i.i = sdiv i64 %sub.i.i, 100
  %div10.neg.i.i = sdiv i64 %sub.i.i, -400
  %sub7.neg.i.i = add nsw i64 %div.i.i, -1
  %add.neg.i.i = add nsw i64 %sub7.neg.i.i, %div3.neg.i.i
  %sub11.i.i = add nsw i64 %add.neg.i.i, %div6.neg.neg.i.i
  %sub12.i.i = add nsw i64 %sub11.i.i, %div10.neg.i.i
  %div13.i.i = sdiv i64 %sub12.i.i, 365
  %add14.i.i = add nsw i64 %div13.i.i, 1
  %call1.i = tail call noundef i32 @_ZNK2EA4StdC8DateTime12GetParameterENS0_9ParameterE(ptr noundef nonnull align 8 dereferenceable(12) %dateTime, i32 noundef 2)
  %conv2.i = trunc i32 %call1.i to i16
  %call5.i = tail call noundef i32 @_ZNK2EA4StdC8DateTime12GetParameterENS0_9ParameterE(ptr noundef nonnull align 8 dereferenceable(12) %dateTime, i32 noundef 6)
  %mnNanosecond.i.i = getelementptr inbounds nuw i8, ptr %dateTime, i64 8
  %1 = load i32, ptr %mnNanosecond.i.i, align 8
  %conv = and i32 %call1.i, 65535
  %cmp = icmp ult i16 %conv2.i, 3
  %conv4 = and i64 %add14.i.i, 65535
  %sub = sext i1 %cmp to i64
  %year.0 = add nsw i64 %conv4, %sub
  %month.0.in.v = select i1 %cmp, i32 13, i32 1
  %month.0.in = add nuw nsw i32 %conv, %month.0.in.v
  %div.i = udiv i32 %1, 1000000
  %conv14.i = zext nneg i32 %div.i to i64
  %rem80.i.i = srem i64 %0, 60
  %div75.i.i = sdiv i64 %0, 60
  %rem76.i.i = srem i64 %div75.i.i, 60
  %div70.i.i = sdiv i64 %0, 3600
  %rem71.i.i = srem i64 %div70.i.i, 24
  %div.lhs.trunc = trunc nsw i64 %year.0 to i32
  %div7 = sdiv i32 %div.lhs.trunc, 100
  %narrow = mul nuw nsw i32 %div7, 3
  %narrow8 = add nuw nsw i32 %narrow, 3
  %2 = lshr i32 %narrow8, 2
  %div134 = zext nneg i32 %2 to i64
  %mul14 = mul nsw i64 %year.0, 36525
  %div15 = sdiv i64 %mul14, 100
  %narrow9 = mul nuw nsw i32 %month.0.in, 1959
  %3 = lshr i32 %narrow9, 6
  %div185 = zext nneg i32 %3 to i64
  %4 = and i32 %call5.i, 65535
  %conv20 = zext nneg i32 %4 to i64
  %sub16 = add nsw i64 %div15, %conv20
  %add19 = add nsw i64 %sub16, %div185
  %add21 = sub nsw i64 %add19, %div134
  %5 = mul nsw i64 %add21, 24
  %conv24 = and i64 %rem71.i.i, 65535
  %mul23 = add nuw nsw i64 %conv24, -14035608
  %add25 = add nsw i64 %mul23, %5
  %mul26 = mul nsw i64 %add25, 60
  %conv27 = and i64 %rem76.i.i, 65535
  %add28 = add nsw i64 %mul26, %conv27
  %mul29 = mul nsw i64 %add28, 60
  %conv30 = and i64 %rem80.i.i, 65535
  %add31 = add nsw i64 %mul29, %conv30
  %mul32 = mul nsw i64 %add31, 1000
  %add34 = add nsw i64 %mul32, %conv14.i
  %mul35 = mul nsw i64 %add34, 10000
  %conv36 = trunc i64 %mul35 to i32
  store i32 %conv36, ptr %time, align 4
  %shr = lshr i64 %mul35, 32
  %conv37 = trunc nuw i64 %shr to i32
  %dwHighDateTime = getelementptr inbounds nuw i8, ptr %time, i64 4
  store i32 %conv37, ptr %dwHighDateTime, align 4
  ret void
}